target datalayout = "e-m:e-p270:32:32-p271:32:32-p272:64:64-i64:64-i128:128-f80:128-n8:16:32:64-S128"
target triple = "x86_64-pc-linux-gnu"

%struct._Unwind_Exception = type { i64, ptr, i64, i64 }
%"struct.__cxxabiv1::__cxa_exception" = type { ptr, i64, ptr, ptr, ptr, ptr, ptr, i32, i32, ptr, ptr, ptr, ptr, %struct._Unwind_Exception }

; Function Attrs: inlinehint mustprogress nounwind uwtable
define internal noundef i64 @_ZN10__cxxabiv1L23aligned_allocation_sizeEmm(i64 noundef %0, i64 noundef %1) #8 {
  %3 = alloca i64, align 8
  %4 = alloca i64, align 8
  store i64 %0, ptr %3, align 8, !tbaa !9
  store i64 %1, ptr %4, align 8, !tbaa !9
  %5 = load i64, ptr %3, align 8, !tbaa !9
  %6 = load i64, ptr %4, align 8, !tbaa !9
  %7 = add i64 %5, %6
  %8 = sub i64 %7, 1
  %9 = load i64, ptr %4, align 8, !tbaa !9
  %10 = sub i64 %9, 1
  %11 = xor i64 %10, -1
  %12 = and i64 %8, %11
  ret i64 %12
}

; Function Attrs: inlinehint mustprogress nounwind uwtable
define internal noundef ptr @_ZN10__cxxabiv1L32thrown_object_from_cxa_exceptionEPNS_15__cxa_exceptionE(ptr noundef %0) #8 {
  %2 = alloca ptr, align 8
  store ptr %0, ptr %2, align 8, !tbaa !13
  %3 = load ptr, ptr %2, align 8, !tbaa !13
  %4 = getelementptr inbounds %"struct.__cxxabiv1::__cxa_exception", ptr %3, i64 1
  ret ptr %4
}

; Function Attrs: mustprogress nounwind uwtable
define internal noundef i64 @_ZN10__cxxabiv1L24get_cxa_exception_offsetEv() #0 {
  %1 = alloca i64, align 8
  %2 = alloca i64, align 8
  %3 = alloca i64, align 8
  %4 = alloca i64, align 8
  call void @llvm.lifetime.start.p0(i64 8, ptr %1) #14
  store i64 16, ptr %1, align 8, !tbaa !9
  call void @llvm.lifetime.start.p0(i64 8, ptr %2) #14
  store i64 128, ptr %2, align 8, !tbaa !9
  call void @llvm.lifetime.start.p0(i64 8, ptr %3) #14
  store i64 128, ptr %3, align 8, !tbaa !9
  call void @llvm.lifetime.start.p0(i64 8, ptr %4) #14
  store i64 0, ptr %4, align 8, !tbaa !9
  call void @llvm.lifetime.end.p0(i64 8, ptr %4) #14
  call void @llvm.lifetime.end.p0(i64 8, ptr %3) #14
  call void @llvm.lifetime.end.p0(i64 8, ptr %2) #14
  call void @llvm.lifetime.end.p0(i64 8, ptr %1) #14
  ret i64 0
}

; Function Attrs: inlinehint mustprogress uwtable
define internal noundef i64 @_ZN10__cxxabiv1L45cxa_exception_size_from_exception_thrown_sizeEm(i64 noundef %0) #3 {
  %2 = alloca i64, align 8
  store i64 %0, ptr %2, align 8, !tbaa !9
  %3 = load i64, ptr %2, align 8, !tbaa !9
  %4 = add i64 %3, 128
  %5 = call noundef i64 @_ZN10__cxxabiv1L23aligned_allocation_sizeEmm(i64 noundef %4, i64 noundef 16)
  ret i64 %5
}

; Function Attrs: mustprogress nounwind uwtable
define dso_local ptr @__cxa_allocate_exception(i64 noundef %0) #0 personality ptr @__gxx_personality_v0 {
  %2 = alloca i64, align 8
  %3 = alloca i64, align 8
  %4 = alloca i64, align 8
  %5 = alloca ptr, align 8
  %6 = alloca ptr, align 8
  store i64 %0, ptr %2, align 8, !tbaa !9
  call void @llvm.lifetime.start.p0(i64 8, ptr %3) #14
  %7 = load i64, ptr %2, align 8, !tbaa !9
  %8 = invoke noundef i64 @_ZN10__cxxabiv1L45cxa_exception_size_from_exception_thrown_sizeEm(i64 noundef %7)
          to label %9 unwind label %29

9:                                                ; preds = %1
  store i64 %8, ptr %3, align 8, !tbaa !9
  call void @llvm.lifetime.start.p0(i64 8, ptr %4) #14
  %10 = invoke noundef i64 @_ZN10__cxxabiv1L24get_cxa_exception_offsetEv()
          to label %11 unwind label %29

11:                                               ; preds = %9
  store i64 %10, ptr %4, align 8, !tbaa !9
  call void @llvm.lifetime.start.p0(i64 8, ptr %5) #14
  %12 = load i64, ptr %4, align 8, !tbaa !9
  %13 = load i64, ptr %3, align 8, !tbaa !9
  %14 = add i64 %12, %13
  %15 = invoke noundef ptr @_ZN10__cxxabiv130__aligned_malloc_with_fallbackEm(i64 noundef %14)
          to label %16 unwind label %29

16:                                               ; preds = %11
  store ptr %15, ptr %5, align 8, !tbaa !11
  %17 = load ptr, ptr %5, align 8, !tbaa !11
  %18 = icmp eq ptr null, %17
  br i1 %18, label %19, label %20

19:                                               ; preds = %16
  call void @_ZSt9terminatev() #15
  unreachable

20:                                               ; preds = %16
  call void @llvm.lifetime.start.p0(i64 8, ptr %6) #14
  %21 = load ptr, ptr %5, align 8, !tbaa !11
  %22 = load i64, ptr %4, align 8, !tbaa !9
  %23 = getelementptr inbounds nuw i8, ptr %21, i64 %22
  store ptr %23, ptr %6, align 8, !tbaa !13
  %24 = load ptr, ptr %6, align 8, !tbaa !13
  %25 = load i64, ptr %3, align 8, !tbaa !9
  call void @llvm.memset.p0.i64(ptr align 16 %24, i8 0, i64 %25, i1 false)
  %26 = load ptr, ptr %6, align 8, !tbaa !13
  %27 = invoke noundef ptr @_ZN10__cxxabiv1L32thrown_object_from_cxa_exceptionEPNS_15__cxa_exceptionE(ptr noundef %26)
          to label %28 unwind label %29

28:                                               ; preds = %20
  call void @llvm.lifetime.end.p0(i64 8, ptr %6) #14
  call void @llvm.lifetime.end.p0(i64 8, ptr %5) #14
  call void @llvm.lifetime.end.p0(i64 8, ptr %4) #14
  call void @llvm.lifetime.end.p0(i64 8, ptr %3) #14
  ret ptr %27

29:                                               ; preds = %20, %11, %9, %1
  %30 = landingpad { ptr, i32 }
          catch ptr null
  %31 = extractvalue { ptr, i32 } %30, 0
  call void @__clang_call_terminate(ptr %31) #15
  unreachable
}