; Function Attrs: mustprogress nounwind uwtable
define dso_local nonnull ptr @__cxa_allocate_exception(i64 noundef %0) local_unnamed_addr #2 personality ptr @__gxx_personality_v0 {
  %2 = add i64 %0, 143
  %3 = and i64 %2, -16
  %4 = invoke noundef ptr @_ZN10__cxxabiv130__aligned_malloc_with_fallbackEm(i64 noundef %3)
          to label %5 unwind label %10

5:                                                ; preds = %1
  %6 = icmp eq ptr %4, null
  br i1 %6, label %7, label %8

7:                                                ; preds = %5
  tail call void @_ZSt9terminatev() #16
  unreachable

8:                                                ; preds = %5
  tail call void @llvm.memset.p0.i64(ptr nonnull align 16 %4, i8 0, i64 %3, i1 false)
  %9 = getelementptr inbounds nuw i8, ptr %4, i64 128
  ret ptr %9

10:                                               ; preds = %1
  %11 = landingpad { ptr, i32 }
          catch ptr null
  %12 = extractvalue { ptr, i32 } %11, 0
  tail call void @__clang_call_terminate(ptr %12) #16
  unreachable
}